target datalayout = "e-m:e-p270:32:32-p271:32:32-p272:64:64-i64:64-i128:128-f80:128-n8:16:32:64-S128"
target triple = "x86_64-pc-linux-gnu"

%struct.prov_sm4_xts_ctx_st = type { %struct.prov_cipher_ctx_st, %union.anon.0, %union.anon.0, i32, %struct.xts128_context, ptr, ptr }
%struct.prov_cipher_ctx_st = type { [16 x i8], [16 x i8], [16 x i8], ptr, %union.anon, i32, i64, i64, i64, i64, i32, i8, i32, ptr, i32, i64, i32, i64, i32, ptr, ptr, ptr }
%union.anon = type { ptr }
%union.anon.0 = type { double, [120 x i8] }
%struct.xts128_context = type { ptr, ptr, ptr, ptr }

@.str = private unnamed_addr constant [62 x i8] c"../openssl/providers/implementations/ciphers/cipher_sm4_xts.c\00", align 1
@__func__.sm4_xts_cipher = private unnamed_addr constant [15 x i8] c"sm4_xts_cipher\00", align 1

; Function Attrs: nounwind uwtable
define internal i32 @sm4_xts_cipher(ptr noundef %0, ptr noundef %1, ptr noundef %2, i64 noundef %3, ptr noundef %4, i64 noundef %5) #0 {
  %7 = alloca i32, align 4
  %8 = alloca ptr, align 8
  %9 = alloca ptr, align 8
  %10 = alloca ptr, align 8
  %11 = alloca i64, align 8
  %12 = alloca ptr, align 8
  %13 = alloca i64, align 8
  %14 = alloca ptr, align 8
  %15 = alloca i32, align 4
  store ptr %0, ptr %8, align 8, !tbaa !3
  store ptr %1, ptr %9, align 8, !tbaa !7
  store ptr %2, ptr %10, align 8, !tbaa !13
  store i64 %3, ptr %11, align 8, !tbaa !9
  store ptr %4, ptr %12, align 8, !tbaa !7
  store i64 %5, ptr %13, align 8, !tbaa !9
  call void @llvm.lifetime.start.p0(i64 8, ptr %14) #4
  %16 = load ptr, ptr %8, align 8, !tbaa !3
  store ptr %16, ptr %14, align 8, !tbaa !15
  %17 = call i32 @ossl_prov_is_running()
  %18 = icmp ne i32 %17, 0
  br i1 %18, label %19, label %49

19:                                               ; preds = %6
  %20 = load ptr, ptr %14, align 8, !tbaa !15
  %21 = getelementptr inbounds nuw %struct.prov_sm4_xts_ctx_st, ptr %20, i32 0, i32 4
  %22 = getelementptr inbounds nuw %struct.xts128_context, ptr %21, i32 0, i32 0
  %23 = load ptr, ptr %22, align 8, !tbaa !17
  %24 = icmp eq ptr %23, null
  br i1 %24, label %49, label %25

25:                                               ; preds = %19
  %26 = load ptr, ptr %14, align 8, !tbaa !15
  %27 = getelementptr inbounds nuw %struct.prov_sm4_xts_ctx_st, ptr %26, i32 0, i32 4
  %28 = getelementptr inbounds nuw %struct.xts128_context, ptr %27, i32 0, i32 1
  %29 = load ptr, ptr %28, align 8, !tbaa !24
  %30 = icmp eq ptr %29, null
  br i1 %30, label %49, label %31

31:                                               ; preds = %25
  %32 = load ptr, ptr %14, align 8, !tbaa !15
  %33 = getelementptr inbounds nuw %struct.prov_sm4_xts_ctx_st, ptr %32, i32 0, i32 0
  %34 = getelementptr inbounds nuw %struct.prov_cipher_ctx_st, ptr %33, i32 0, i32 11
  %35 = load i8, ptr %34, align 4
  %36 = lshr i8 %35, 2
  %37 = and i8 %36, 1
  %38 = zext i8 %37 to i32
  %39 = icmp ne i32 %38, 0
  br i1 %39, label %40, label %49

40:                                               ; preds = %31
  %41 = load ptr, ptr %9, align 8, !tbaa !7
  %42 = icmp eq ptr %41, null
  br i1 %42, label %49, label %43

43:                                               ; preds = %40
  %44 = load ptr, ptr %12, align 8, !tbaa !7
  %45 = icmp eq ptr %44, null
  br i1 %45, label %49, label %46

46:                                               ; preds = %43
  %47 = load i64, ptr %13, align 8, !tbaa !9
  %48 = icmp ult i64 %47, 16
  br i1 %48, label %49, label %50

49:                                               ; preds = %46, %43, %40, %31, %25, %19, %6
  store i32 0, ptr %7, align 4
  store i32 1, ptr %15, align 4
  br label %168

50:                                               ; preds = %46
  %51 = load i64, ptr %13, align 8, !tbaa !9
  %52 = icmp ugt i64 %51, 16777216
  br i1 %52, label %53, label %54

53:                                               ; preds = %50
  call void @ERR_new()
  call void @ERR_set_debug(ptr noundef @.str, i32 noundef 142, ptr noundef @__func__.sm4_xts_cipher)
  call void (i32, i32, ptr, ...) @ERR_set_error(i32 noundef 57, i32 noundef 148, ptr noundef null)
  store i32 0, ptr %7, align 4
  store i32 1, ptr %15, align 4
  br label %168

54:                                               ; preds = %50
  %55 = load ptr, ptr %14, align 8, !tbaa !15
  %56 = getelementptr inbounds nuw %struct.prov_sm4_xts_ctx_st, ptr %55, i32 0, i32 3
  %57 = load i32, ptr %56, align 8, !tbaa !25
  %58 = icmp ne i32 %57, 0
  br i1 %58, label %59, label %112

59:                                               ; preds = %54
  %60 = load ptr, ptr %14, align 8, !tbaa !15
  %61 = getelementptr inbounds nuw %struct.prov_sm4_xts_ctx_st, ptr %60, i32 0, i32 6
  %62 = load ptr, ptr %61, align 8, !tbaa !26
  %63 = icmp ne ptr %62, null
  br i1 %63, label %64, label %90

64:                                               ; preds = %59
  %65 = load ptr, ptr %14, align 8, !tbaa !15
  %66 = getelementptr inbounds nuw %struct.prov_sm4_xts_ctx_st, ptr %65, i32 0, i32 6
  %67 = load ptr, ptr %66, align 8, !tbaa !26
  %68 = load ptr, ptr %12, align 8, !tbaa !7
  %69 = load ptr, ptr %9, align 8, !tbaa !7
  %70 = load i64, ptr %13, align 8, !tbaa !9
  %71 = load ptr, ptr %14, align 8, !tbaa !15
  %72 = getelementptr inbounds nuw %struct.prov_sm4_xts_ctx_st, ptr %71, i32 0, i32 4
  %73 = getelementptr inbounds nuw %struct.xts128_context, ptr %72, i32 0, i32 0
  %74 = load ptr, ptr %73, align 8, !tbaa !17
  %75 = load ptr, ptr %14, align 8, !tbaa !15
  %76 = getelementptr inbounds nuw %struct.prov_sm4_xts_ctx_st, ptr %75, i32 0, i32 4
  %77 = getelementptr inbounds nuw %struct.xts128_context, ptr %76, i32 0, i32 1
  %78 = load ptr, ptr %77, align 8, !tbaa !24
  %79 = load ptr, ptr %14, align 8, !tbaa !15
  %80 = getelementptr inbounds nuw %struct.prov_sm4_xts_ctx_st, ptr %79, i32 0, i32 0
  %81 = getelementptr inbounds nuw %struct.prov_cipher_ctx_st, ptr %80, i32 0, i32 2
  %82 = getelementptr inbounds [16 x i8], ptr %81, i64 0, i64 0
  %83 = load ptr, ptr %14, align 8, !tbaa !15
  %84 = getelementptr inbounds nuw %struct.prov_sm4_xts_ctx_st, ptr %83, i32 0, i32 0
  %85 = getelementptr inbounds nuw %struct.prov_cipher_ctx_st, ptr %84, i32 0, i32 11
  %86 = load i8, ptr %85, align 4
  %87 = lshr i8 %86, 1
  %88 = and i8 %87, 1
  %89 = zext i8 %88 to i32
  call void %67(ptr noundef %68, ptr noundef %69, i64 noundef %70, ptr noundef %74, ptr noundef %78, ptr noundef %82, i32 noundef %89)
  br label %111

90:                                               ; preds = %59
  %91 = load ptr, ptr %14, align 8, !tbaa !15
  %92 = getelementptr inbounds nuw %struct.prov_sm4_xts_ctx_st, ptr %91, i32 0, i32 4
  %93 = load ptr, ptr %14, align 8, !tbaa !15
  %94 = getelementptr inbounds nuw %struct.prov_sm4_xts_ctx_st, ptr %93, i32 0, i32 0
  %95 = getelementptr inbounds nuw %struct.prov_cipher_ctx_st, ptr %94, i32 0, i32 2
  %96 = getelementptr inbounds [16 x i8], ptr %95, i64 0, i64 0
  %97 = load ptr, ptr %12, align 8, !tbaa !7
  %98 = load ptr, ptr %9, align 8, !tbaa !7
  %99 = load i64, ptr %13, align 8, !tbaa !9
  %100 = load ptr, ptr %14, align 8, !tbaa !15
  %101 = getelementptr inbounds nuw %struct.prov_sm4_xts_ctx_st, ptr %100, i32 0, i32 0
  %102 = getelementptr inbounds nuw %struct.prov_cipher_ctx_st, ptr %101, i32 0, i32 11
  %103 = load i8, ptr %102, align 4
  %104 = lshr i8 %103, 1
  %105 = and i8 %104, 1
  %106 = zext i8 %105 to i32
  %107 = call i32 @CRYPTO_xts128_encrypt(ptr noundef %92, ptr noundef %96, ptr noundef %97, ptr noundef %98, i64 noundef %99, i32 noundef %106)
  %108 = icmp ne i32 %107, 0
  br i1 %108, label %109, label %110

109:                                              ; preds = %90
  store i32 0, ptr %7, align 4
  store i32 1, ptr %15, align 4
  br label %168

110:                                              ; preds = %90
  br label %111

111:                                              ; preds = %110, %64
  br label %165

112:                                              ; preds = %54
  %113 = load ptr, ptr %14, align 8, !tbaa !15
  %114 = getelementptr inbounds nuw %struct.prov_sm4_xts_ctx_st, ptr %113, i32 0, i32 5
  %115 = load ptr, ptr %114, align 8, !tbaa !27
  %116 = icmp ne ptr %115, null
  br i1 %116, label %117, label %143

117:                                              ; preds = %112
  %118 = load ptr, ptr %14, align 8, !tbaa !15
  %119 = getelementptr inbounds nuw %struct.prov_sm4_xts_ctx_st, ptr %118, i32 0, i32 5
  %120 = load ptr, ptr %119, align 8, !tbaa !27
  %121 = load ptr, ptr %12, align 8, !tbaa !7
  %122 = load ptr, ptr %9, align 8, !tbaa !7
  %123 = load i64, ptr %13, align 8, !tbaa !9
  %124 = load ptr, ptr %14, align 8, !tbaa !15
  %125 = getelementptr inbounds nuw %struct.prov_sm4_xts_ctx_st, ptr %124, i32 0, i32 4
  %126 = getelementptr inbounds nuw %struct.xts128_context, ptr %125, i32 0, i32 0
  %127 = load ptr, ptr %126, align 8, !tbaa !17
  %128 = load ptr, ptr %14, align 8, !tbaa !15
  %129 = getelementptr inbounds nuw %struct.prov_sm4_xts_ctx_st, ptr %128, i32 0, i32 4
  %130 = getelementptr inbounds nuw %struct.xts128_context, ptr %129, i32 0, i32 1
  %131 = load ptr, ptr %130, align 8, !tbaa !24
  %132 = load ptr, ptr %14, align 8, !tbaa !15
  %133 = getelementptr inbounds nuw %struct.prov_sm4_xts_ctx_st, ptr %132, i32 0, i32 0
  %134 = getelementptr inbounds nuw %struct.prov_cipher_ctx_st, ptr %133, i32 0, i32 2
  %135 = getelementptr inbounds [16 x i8], ptr %134, i64 0, i64 0
  %136 = load ptr, ptr %14, align 8, !tbaa !15
  %137 = getelementptr inbounds nuw %struct.prov_sm4_xts_ctx_st, ptr %136, i32 0, i32 0
  %138 = getelementptr inbounds nuw %struct.prov_cipher_ctx_st, ptr %137, i32 0, i32 11
  %139 = load i8, ptr %138, align 4
  %140 = lshr i8 %139, 1
  %141 = and i8 %140, 1
  %142 = zext i8 %141 to i32
  call void %120(ptr noundef %121, ptr noundef %122, i64 noundef %123, ptr noundef %127, ptr noundef %131, ptr noundef %135, i32 noundef %142)
  br label %164

143:                                              ; preds = %112
  %144 = load ptr, ptr %14, align 8, !tbaa !15
  %145 = getelementptr inbounds nuw %struct.prov_sm4_xts_ctx_st, ptr %144, i32 0, i32 4
  %146 = load ptr, ptr %14, align 8, !tbaa !15
  %147 = getelementptr inbounds nuw %struct.prov_sm4_xts_ctx_st, ptr %146, i32 0, i32 0
  %148 = getelementptr inbounds nuw %struct.prov_cipher_ctx_st, ptr %147, i32 0, i32 2
  %149 = getelementptr inbounds [16 x i8], ptr %148, i64 0, i64 0
  %150 = load ptr, ptr %12, align 8, !tbaa !7
  %151 = load ptr, ptr %9, align 8, !tbaa !7
  %152 = load i64, ptr %13, align 8, !tbaa !9
  %153 = load ptr, ptr %14, align 8, !tbaa !15
  %154 = getelementptr inbounds nuw %struct.prov_sm4_xts_ctx_st, ptr %153, i32 0, i32 0
  %155 = getelementptr inbounds nuw %struct.prov_cipher_ctx_st, ptr %154, i32 0, i32 11
  %156 = load i8, ptr %155, align 4
  %157 = lshr i8 %156, 1
  %158 = and i8 %157, 1
  %159 = zext i8 %158 to i32
  %160 = call i32 @ossl_crypto_xts128gb_encrypt(ptr noundef %145, ptr noundef %149, ptr noundef %150, ptr noundef %151, i64 noundef %152, i32 noundef %159)
  %161 = icmp ne i32 %160, 0
  br i1 %161, label %162, label %163

162:                                              ; preds = %143
  store i32 0, ptr %7, align 4
  store i32 1, ptr %15, align 4
  br label %168

163:                                              ; preds = %143
  br label %164

164:                                              ; preds = %163, %117
  br label %165

165:                                              ; preds = %164, %111
  %166 = load i64, ptr %13, align 8, !tbaa !9
  %167 = load ptr, ptr %10, align 8, !tbaa !13
  store i64 %166, ptr %167, align 8, !tbaa !9
  store i32 1, ptr %7, align 4
  store i32 1, ptr %15, align 4
  br label %168

168:                                              ; preds = %165, %162, %109, %53, %49
  call void @llvm.lifetime.end.p0(i64 8, ptr %14) #4
  %169 = load i32, ptr %7, align 4
  ret i32 %169
}