; Function Attrs: nounwind uwtable
define internal range(i32 0, 2) i32 @sm4_xts_cipher(ptr noundef %0, ptr noundef %1, ptr noundef writeonly captures(none) %2, i64 %3, ptr noundef %4, i64 noundef %5) #0 {
  %7 = tail call i32 @ossl_prov_is_running() #4
  %.not = icmp eq i32 %7, 0
  br i1 %.not, label %45, label %8

8:                                                ; preds = %6
  %9 = getelementptr inbounds nuw i8, ptr %0, i64 456
  %10 = load ptr, ptr %9, align 8, !tbaa !7
  %11 = icmp eq ptr %10, null
  br i1 %11, label %45, label %12

12:                                               ; preds = %8
  %13 = getelementptr inbounds nuw i8, ptr %0, i64 464
  %14 = load ptr, ptr %13, align 8, !tbaa !16
  %15 = icmp eq ptr %14, null
  br i1 %15, label %45, label %16

16:                                               ; preds = %12
  %17 = getelementptr inbounds nuw i8, ptr %0, i64 108
  %18 = load i8, ptr %17, align 4
  %19 = and i8 %18, 4
  %20 = icmp eq i8 %19, 0
  %21 = icmp eq ptr %1, null
  %or.cond = or i1 %21, %20
  %22 = icmp eq ptr %4, null
  %or.cond3 = or i1 %22, %or.cond
  %23 = icmp ult i64 %5, 16
  %or.cond5 = or i1 %23, %or.cond3
  br i1 %or.cond5, label %45, label %24

24:                                               ; preds = %16
  %25 = icmp ugt i64 %5, 16777216
  br i1 %25, label %26, label %27

26:                                               ; preds = %24
  tail call void @ERR_new() #4
  tail call void @ERR_set_debug(ptr noundef nonnull @.str, i32 noundef 142, ptr noundef nonnull @__func__.sm4_xts_cipher) #4
  tail call void (i32, i32, ptr, ...) @ERR_set_error(i32 noundef 57, i32 noundef 148, ptr noundef null) #4
  br label %45

27:                                               ; preds = %24
  %28 = getelementptr inbounds nuw i8, ptr %0, i64 448
  %29 = load i32, ptr %28, align 8, !tbaa !17
  %.not53 = icmp eq i32 %29, 0
  %30 = getelementptr inbounds nuw i8, ptr %0, i64 32
  %31 = lshr i8 %18, 1
  %32 = and i8 %31, 1
  %33 = zext nneg i8 %32 to i32
  br i1 %.not53, label %39, label %34

34:                                               ; preds = %27
  %35 = getelementptr inbounds nuw i8, ptr %0, i64 496
  %36 = load ptr, ptr %35, align 8, !tbaa !18
  %.not56 = icmp eq ptr %36, null
  br i1 %.not56, label %37, label %.sink.split

37:                                               ; preds = %34
  %38 = tail call i32 @CRYPTO_xts128_encrypt(ptr noundef nonnull %9, ptr noundef nonnull %30, ptr noundef nonnull %4, ptr noundef nonnull %1, i64 noundef %5, i32 noundef %33) #4
  %.not57 = icmp eq i32 %38, 0
  br i1 %.not57, label %44, label %45

39:                                               ; preds = %27
  %40 = getelementptr inbounds nuw i8, ptr %0, i64 488
  %41 = load ptr, ptr %40, align 8, !tbaa !19
  %.not54 = icmp eq ptr %41, null
  br i1 %.not54, label %42, label %.sink.split

42:                                               ; preds = %39
  %43 = tail call i32 @ossl_crypto_xts128gb_encrypt(ptr noundef nonnull %9, ptr noundef nonnull %30, ptr noundef nonnull %4, ptr noundef nonnull %1, i64 noundef %5, i32 noundef %33) #4
  %.not55 = icmp eq i32 %43, 0
  br i1 %.not55, label %44, label %45

.sink.split:                                      ; preds = %39, %34
  %.sink = phi ptr [ %36, %34 ], [ %41, %39 ]
  tail call void %.sink(ptr noundef nonnull %4, ptr noundef nonnull %1, i64 noundef %5, ptr noundef nonnull %10, ptr noundef nonnull %14, ptr noundef nonnull %30, i32 noundef %33) #4
  br label %44

44:                                               ; preds = %.sink.split, %42, %37
  store i64 %5, ptr %2, align 8, !tbaa !3
  br label %45

45:                                               ; preds = %42, %37, %6, %8, %12, %16, %44, %26
  %.0 = phi i32 [ 0, %26 ], [ 1, %44 ], [ 0, %16 ], [ 0, %12 ], [ 0, %8 ], [ 0, %6 ], [ 0, %37 ], [ 0, %42 ]
  ret i32 %.0
}